---
triple:          'arm64-apple-darwin'
binary-path:     '/Users/nientzulin/Desktop/Algorithm/output/313551135'
relocations:
  - { offsetInCU: 0x4920, offset: 0x4920, size: 0x8, addend: 0x0, symName: __ZNSt3__17advanceB8ue170006IP10CoordinatellvEEvRT_T0_, symObjAddr: 0x2560, symBinAddr: 0x100006380, symSize: 0x38 }
  - { offsetInCU: 0x4CE0, offset: 0x4CE0, size: 0x8, addend: 0x0, symName: __ZNSt3__111__sift_downB8ue170006INS_17_ClassicAlgPolicyERPFb10CoordinateS2_EPS2_EEvT1_OT0_NS_15iterator_traitsIS7_E15difference_typeES7_, symObjAddr: 0x3710, symBinAddr: 0x100007530, symSize: 0x290 }
  - { offsetInCU: 0x4D8E, offset: 0x4D8E, size: 0x8, addend: 0x0, symName: __ZNSt3__117__floyd_sift_downB8ue170006INS_17_ClassicAlgPolicyERPFb10CoordinateS2_EPS2_EET1_S7_OT0_NS_15iterator_traitsIS7_E15difference_typeE, symObjAddr: 0x3BD0, symBinAddr: 0x1000079F0, symSize: 0x120 }
  - { offsetInCU: 0x4E26, offset: 0x4E26, size: 0x8, addend: 0x0, symName: __ZNSt3__111__introsortINS_17_ClassicAlgPolicyERPFb10CoordinateS2_EPS2_Lb0EEEvT1_S7_T0_NS_15iterator_traitsIS7_E15difference_typeEb, symObjAddr: 0x3F64, symBinAddr: 0x100007D84, symSize: 0x4F4 }
  - { offsetInCU: 0x4F51, offset: 0x4F51, size: 0x8, addend: 0x0, symName: __ZNSt3__126__insertion_sort_unguardedB8ue170006INS_17_ClassicAlgPolicyERPFb10CoordinateS2_EPS2_EEvT1_S7_T0_, symObjAddr: 0x46EC, symBinAddr: 0x10000850C, symSize: 0x164 }
  - { offsetInCU: 0x5041, offset: 0x5041, size: 0x8, addend: 0x0, symName: __ZNSt3__131__partition_with_equals_on_leftB8ue170006INS_17_ClassicAlgPolicyEP10CoordinateRPFbS2_S2_EEET0_S7_S7_T1_, symObjAddr: 0x4B10, symBinAddr: 0x100008930, symSize: 0x2F4 }
  - { offsetInCU: 0x50FD, offset: 0x50FD, size: 0x8, addend: 0x0, symName: __ZNSt3__118__bitset_partitionB8ue170006INS_17_ClassicAlgPolicyEP10CoordinateRPFbS2_S2_EEENS_4pairIT0_bEES8_S8_T1_, symObjAddr: 0x4E04, symBinAddr: 0x100008C24, symSize: 0x3C4 }
  - { offsetInCU: 0x51FA, offset: 0x51FA, size: 0x8, addend: 0x0, symName: __ZNSt3__124__swap_bitmap_pos_withinB8ue170006INS_17_ClassicAlgPolicyEP10CoordinateEEvRT0_S5_RyS6_, symObjAddr: 0x6090, symBinAddr: 0x100009EB0, symSize: 0x1E0 }
  - { offsetInCU: 0x52C7, offset: 0x52C7, size: 0x8, addend: 0x0, symName: __ZNSt3__132__partition_with_equals_on_rightB8ue170006INS_17_ClassicAlgPolicyEP10CoordinateRPFbS2_S2_EEENS_4pairIT0_bEES8_S8_T1_, symObjAddr: 0x51C8, symBinAddr: 0x100008FE8, symSize: 0x2E8 }
  - { offsetInCU: 0x5394, offset: 0x5394, size: 0x8, addend: 0x0, symName: __ZNSt3__127__insertion_sort_incompleteB8ue170006INS_17_ClassicAlgPolicyERPFb10CoordinateS2_EPS2_EEbT1_S7_T0_, symObjAddr: 0x54B0, symBinAddr: 0x1000092D0, symSize: 0x36C }
  - { offsetInCU: 0x617E, offset: 0x617E, size: 0x8, addend: 0x0, symName: __ZNSt3__14sortB8ue170006INS_11__wrap_iterIP10CoordinateEEPFbS2_S2_EEEvT_S7_T0_, symObjAddr: 0x534, symBinAddr: 0x100004354, symSize: 0x48 }
  - { offsetInCU: 0x6E1E, offset: 0x6E1E, size: 0x8, addend: 0x0, symName: __ZNSt3__1lsB8ue170006IcNS_11char_traitsIcEEEERNS_13basic_ostreamIT_T0_EES7_RKNS_8__iom_t5E, symObjAddr: 0xDEC, symBinAddr: 0x100004C0C, symSize: 0x40 }
  - { offsetInCU: 0x6E6A, offset: 0x6E6A, size: 0x8, addend: 0x0, symName: __ZNSt3__15fixedB8ue170006ERNS_8ios_baseE, symObjAddr: 0xE6C, symBinAddr: 0x100004C8C, symSize: 0x30 }
  - { offsetInCU: 0x6E98, offset: 0x6E98, size: 0x8, addend: 0x0, symName: __ZNSt3__112setprecisionB8ue170006Ei, symObjAddr: 0xE9C, symBinAddr: 0x100004CBC, symSize: 0x2C }
  - { offsetInCU: 0x6EC4, offset: 0x6EC4, size: 0x8, addend: 0x0, symName: __ZNSt3__14endlB8ue170006IcNS_11char_traitsIcEEEERNS_13basic_ostreamIT_T0_EES7_, symObjAddr: 0xEF4, symBinAddr: 0x100004D14, symSize: 0x58 }
  - { offsetInCU: 0x6F04, offset: 0x6F04, size: 0x8, addend: 0x0, symName: __ZNSt3__122__make_exception_guardB8ue170006INS_6vectorI10CoordinateNS_9allocatorIS2_EEE16__destroy_vectorEEENS_28__exception_guard_exceptionsIT_EES8_, symObjAddr: 0x113C, symBinAddr: 0x100004F5C, symSize: 0x40 }
  - { offsetInCU: 0x6F39, offset: 0x6F39, size: 0x8, addend: 0x0, symName: __ZNSt3__119__allocate_at_leastB8ue170006INS_9allocatorI10CoordinateEEEENS_19__allocation_resultINS_16allocator_traitsIT_E7pointerEEERS6_m, symObjAddr: 0x1544, symBinAddr: 0x100005364, symSize: 0x40 }
  - { offsetInCU: 0x6F7C, offset: 0x6F7C, size: 0x8, addend: 0x0, symName: __ZNSt3__13minB8ue170006ImEERKT_S3_S3_, symObjAddr: 0x1680, symBinAddr: 0x1000054A0, symSize: 0x2C }
  - { offsetInCU: 0x71C0, offset: 0x71C0, size: 0x8, addend: 0x0, symName: __ZNSt3__13minB8ue170006ImNS_6__lessIvvEEEERKT_S5_S5_T0_, symObjAddr: 0x170C, symBinAddr: 0x10000552C, symSize: 0x54 }
  - { offsetInCU: 0x725F, offset: 0x725F, size: 0x8, addend: 0x0, symName: __ZNSt3__120__throw_length_errorB8ue170006EPKc, symObjAddr: 0x17E8, symBinAddr: 0x100005608, symSize: 0x64 }
  - { offsetInCU: 0x7289, offset: 0x7289, size: 0x8, addend: 0x0, symName: __ZNSt3__130__libcpp_is_constant_evaluatedB8ue170006Ev, symObjAddr: 0x1984, symBinAddr: 0x1000057A4, symSize: 0xC }
  - { offsetInCU: 0x72A6, offset: 0x72A6, size: 0x8, addend: 0x0, symName: __ZNSt3__117__libcpp_allocateB8ue170006Emm, symObjAddr: 0x1990, symBinAddr: 0x1000057B0, symSize: 0x28 }
  - { offsetInCU: 0x72E3, offset: 0x72E3, size: 0x8, addend: 0x0, symName: __ZNSt3__121__libcpp_operator_newB8ue170006IJmEEEPvDpT_, symObjAddr: 0x19B8, symBinAddr: 0x1000057D8, symSize: 0x24 }
  - { offsetInCU: 0x731C, offset: 0x731C, size: 0x8, addend: 0x0, symName: __ZNSt3__112__to_addressB8ue170006I10CoordinateEEPT_S3_, symObjAddr: 0x1AD4, symBinAddr: 0x1000058F4, symSize: 0x14 }
  - { offsetInCU: 0x7351, offset: 0x7351, size: 0x8, addend: 0x0, symName: __ZNSt3__119__libcpp_deallocateB8ue170006EPvmm, symObjAddr: 0x1F9C, symBinAddr: 0x100005DBC, symSize: 0x30 }
  - { offsetInCU: 0x7399, offset: 0x7399, size: 0x8, addend: 0x0, symName: __ZNSt3__127__do_deallocate_handle_sizeB8ue170006IJEEEvPvmDpT_, symObjAddr: 0x1FCC, symBinAddr: 0x100005DEC, symSize: 0x28 }
  - { offsetInCU: 0x73D7, offset: 0x73D7, size: 0x8, addend: 0x0, symName: __ZNSt3__124__libcpp_operator_deleteB8ue170006IJPvEEEvDpT_, symObjAddr: 0x1FF4, symBinAddr: 0x100005E14, symSize: 0x24 }
  - { offsetInCU: 0x740C, offset: 0x740C, size: 0x8, addend: 0x0, symName: __ZNSt3__18distanceB8ue170006IP10CoordinateEENS_15iterator_traitsIT_E15difference_typeES4_S4_, symObjAddr: 0x2254, symBinAddr: 0x100006074, symSize: 0x2C }
  - { offsetInCU: 0x744F, offset: 0x744F, size: 0x8, addend: 0x0, symName: __ZNSt3__14nextB8ue170006IP10CoordinateEENS_9enable_ifIXsr29__has_input_iterator_categoryIT_EE5valueES4_E4typeES4_NS_15iterator_traitsIS4_E15difference_typeE, symObjAddr: 0x2280, symBinAddr: 0x1000060A0, symSize: 0x34 }
  - { offsetInCU: 0x7492, offset: 0x7492, size: 0x8, addend: 0x0, symName: __ZNSt3__14copyB8ue170006IP10CoordinateS2_EET0_T_S4_S3_, symObjAddr: 0x22B4, symBinAddr: 0x1000060D4, symSize: 0x40 }
  - { offsetInCU: 0x74EC, offset: 0x74EC, size: 0x8, addend: 0x0, symName: __ZNSt3__16__copyB8ue170006INS_17_ClassicAlgPolicyEP10CoordinateS3_S3_EENS_4pairIT0_T2_EES5_T1_S6_, symObjAddr: 0x2388, symBinAddr: 0x1000061A8, symSize: 0x44 }
  - { offsetInCU: 0x7558, offset: 0x7558, size: 0x8, addend: 0x0, symName: __ZNSt3__121__convert_to_integralB8ue170006El, symObjAddr: 0x2598, symBinAddr: 0x1000063B8, symSize: 0x14 }
  - { offsetInCU: 0x7584, offset: 0x7584, size: 0x8, addend: 0x0, symName: __ZNSt3__19__advanceB8ue170006IP10CoordinateEEvRT_NS_15iterator_traitsIS3_E15difference_typeENS_26random_access_iterator_tagE, symObjAddr: 0x25AC, symBinAddr: 0x1000063CC, symSize: 0x28 }
  - { offsetInCU: 0x75CD, offset: 0x75CD, size: 0x8, addend: 0x0, symName: __ZNSt3__130__uninitialized_allocator_copyB8ue170006INS_9allocatorI10CoordinateEEPS2_S4_S4_EET2_RT_T0_T1_S5_, symObjAddr: 0x25D4, symBinAddr: 0x1000063F4, symSize: 0x80 }
  - { offsetInCU: 0x766A, offset: 0x766A, size: 0x8, addend: 0x0, symName: __ZNSt3__114__unwrap_rangeB8ue170006IP10CoordinateS2_EENS_4pairIT0_S4_EET_S6_, symObjAddr: 0x2654, symBinAddr: 0x100006474, symSize: 0x60 }
  - { offsetInCU: 0x76B6, offset: 0x76B6, size: 0x8, addend: 0x0, symName: __ZNSt3__135__uninitialized_allocator_copy_implB8ue170006INS_9allocatorI10CoordinateEEPS2_S4_S4_EET2_RT_T0_T1_S5_, symObjAddr: 0x26B4, symBinAddr: 0x1000064D4, symSize: 0xFC }
  - { offsetInCU: 0x7754, offset: 0x7754, size: 0x8, addend: 0x0, symName: __ZNSt3__113__unwrap_iterB8ue170006IP10CoordinateNS_18__unwrap_iter_implIS2_Lb1EEELi0EEEDTclsrT0_8__unwrapclsr3stdE7declvalIT_EEEES6_, symObjAddr: 0x27B0, symBinAddr: 0x1000065D0, symSize: 0x24 }
  - { offsetInCU: 0x7798, offset: 0x7798, size: 0x8, addend: 0x0, symName: __ZNSt3__113__rewrap_iterB8ue170006IP10CoordinateS2_NS_18__unwrap_iter_implIS2_Lb1EEEEET_S5_T0_, symObjAddr: 0x27D4, symBinAddr: 0x1000065F4, symSize: 0x50 }
  - { offsetInCU: 0x77ED, offset: 0x77ED, size: 0x8, addend: 0x0, symName: __ZNSt3__19make_pairB8ue170006IP10CoordinateS2_EENS_4pairINS_18__unwrap_ref_decayIT_E4typeENS4_IT0_E4typeEEEOS5_OS8_, symObjAddr: 0x2824, symBinAddr: 0x100006644, symSize: 0x38 }
  - { offsetInCU: 0x78E9, offset: 0x78E9, size: 0x8, addend: 0x0, symName: __ZNSt3__122__make_exception_guardB8ue170006INS_29_AllocatorDestroyRangeReverseINS_9allocatorI10CoordinateEEPS3_EEEENS_28__exception_guard_exceptionsIT_EES8_, symObjAddr: 0x28CC, symBinAddr: 0x1000066EC, symSize: 0x4C }
  - { offsetInCU: 0x791F, offset: 0x791F, size: 0x8, addend: 0x0, symName: __ZNSt3__119__allocator_destroyB8ue170006INS_9allocatorI10CoordinateEENS_16reverse_iteratorIPS2_EES6_EEvRT_T0_T1_, symObjAddr: 0x2B4C, symBinAddr: 0x10000696C, symSize: 0x70 }
  - { offsetInCU: 0x7982, offset: 0x7982, size: 0x8, addend: 0x0, symName: __ZNSt3__1neB8ue170006IP10CoordinateS2_EEbRKNS_16reverse_iteratorIT_EERKNS3_IT0_EE, symObjAddr: 0x2BF0, symBinAddr: 0x100006A10, symSize: 0x48 }
  - { offsetInCU: 0x79CE, offset: 0x79CE, size: 0x8, addend: 0x0, symName: __ZNSt3__112__to_addressB8ue170006INS_16reverse_iteratorIP10CoordinateEEvEEu7__decayIDTclsr19__to_address_helperIT_EE6__callclsr3stdE7declvalIRKS5_EEEEES7_, symObjAddr: 0x2C38, symBinAddr: 0x100006A58, symSize: 0x24 }
  - { offsetInCU: 0x7A80, offset: 0x7A80, size: 0x8, addend: 0x0, symName: __ZNSt3__123__dispatch_copy_or_moveB8ue170006INS_17_ClassicAlgPolicyENS_11__copy_loopIS1_EENS_14__copy_trivialEP10CoordinateS6_S6_EENS_4pairIT2_T4_EES8_T3_S9_, symObjAddr: 0x2DC8, symBinAddr: 0x100006BE8, symSize: 0x44 }
  - { offsetInCU: 0x7AFE, offset: 0x7AFE, size: 0x8, addend: 0x0, symName: __ZNSt3__121__unwrap_and_dispatchB8ue170006INS_10__overloadINS_11__copy_loopINS_17_ClassicAlgPolicyEEENS_14__copy_trivialEEEP10CoordinateS8_S8_Li0EEENS_4pairIT0_T2_EESA_T1_SB_, symObjAddr: 0x2E0C, symBinAddr: 0x100006C2C, symSize: 0xB4 }
  - { offsetInCU: 0x7BD2, offset: 0x7BD2, size: 0x8, addend: 0x0, symName: __ZNSt3__114__rewrap_rangeB8ue170006IP10CoordinateS2_EET_S3_T0_, symObjAddr: 0x2F08, symBinAddr: 0x100006D28, symSize: 0x2C }
  - { offsetInCU: 0x7C1E, offset: 0x7C1E, size: 0x8, addend: 0x0, symName: __ZNSt3__119__copy_trivial_implB8ue170006I10CoordinateS1_EENS_4pairIPT_PT0_EES4_S4_S6_, symObjAddr: 0x2F34, symBinAddr: 0x100006D54, symSize: 0x80 }
  - { offsetInCU: 0x7C86, offset: 0x7C86, size: 0x8, addend: 0x0, symName: __ZNSt3__119__constexpr_memmoveB8ue170006I10CoordinateS1_Li0EEEPT_S3_PT0_NS_15__element_countE, symObjAddr: 0x2FB4, symBinAddr: 0x100006DD4, symSize: 0xA0 }
  - { offsetInCU: 0x7CF4, offset: 0x7CF4, size: 0x8, addend: 0x0, symName: __ZNSt3__19make_pairB8ue170006IRP10CoordinateS2_EENS_4pairINS_18__unwrap_ref_decayIT_E4typeENS5_IT0_E4typeEEEOS6_OS9_, symObjAddr: 0x3054, symBinAddr: 0x100006E74, symSize: 0x38 }
  - { offsetInCU: 0x7D43, offset: 0x7D43, size: 0x8, addend: 0x0, symName: __ZNSt3__13maxB8ue170006ImEERKT_S3_S3_, symObjAddr: 0x3140, symBinAddr: 0x100006F60, symSize: 0x2C }
  - { offsetInCU: 0x7D86, offset: 0x7D86, size: 0x8, addend: 0x0, symName: __ZNSt3__13maxB8ue170006ImNS_6__lessIvvEEEERKT_S5_S5_T0_, symObjAddr: 0x316C, symBinAddr: 0x100006F8C, symSize: 0x54 }
  - { offsetInCU: 0x7DE0, offset: 0x7DE0, size: 0x8, addend: 0x0, symName: __ZNSt3__110__distanceB8ue170006IP10CoordinateEENS_15iterator_traitsIT_E15difference_typeES4_S4_NS_26random_access_iterator_tagE, symObjAddr: 0x31C0, symBinAddr: 0x100006FE0, symSize: 0x28 }
  - { offsetInCU: 0x7E2D, offset: 0x7E2D, size: 0x8, addend: 0x0, symName: __ZNSt3__111__sort_implB8ue170006INS_17_ClassicAlgPolicyENS_11__wrap_iterIP10CoordinateEEPFbS3_S3_EEEvT0_S8_RT1_, symObjAddr: 0x326C, symBinAddr: 0x10000708C, symSize: 0x108 }
  - { offsetInCU: 0x7E90, offset: 0x7E90, size: 0x8, addend: 0x0, symName: __ZNSt3__123__debug_randomize_rangeB8ue170006INS_17_ClassicAlgPolicyENS_11__wrap_iterIP10CoordinateEES5_EEvT0_T1_, symObjAddr: 0x3374, symBinAddr: 0x100007194, symSize: 0x14 }
  - { offsetInCU: 0x7EE1, offset: 0x7EE1, size: 0x8, addend: 0x0, symName: __ZNSt3__114__partial_sortB8ue170006INS_17_ClassicAlgPolicyEPFb10CoordinateS2_EPS2_S5_EET1_S6_S6_T2_RT0_, symObjAddr: 0x3388, symBinAddr: 0x1000071A8, symSize: 0x94 }
  - { offsetInCU: 0x7F69, offset: 0x7F69, size: 0x8, addend: 0x0, symName: __ZNSt3__113__unwrap_iterB8ue170006INS_11__wrap_iterIP10CoordinateEENS_18__unwrap_iter_implIS4_Lb1EEELi0EEEDTclsrT0_8__unwrapclsr3stdE7declvalIT_EEEES8_, symObjAddr: 0x341C, symBinAddr: 0x10000723C, symSize: 0x2C }
  - { offsetInCU: 0x7FAD, offset: 0x7FAD, size: 0x8, addend: 0x0, symName: __ZNSt3__115__sort_dispatchB8ue170006INS_17_ClassicAlgPolicyEP10CoordinatePFbS2_S2_EEEvT0_S6_RT1_, symObjAddr: 0x3448, symBinAddr: 0x100007268, symSize: 0x64 }
  - { offsetInCU: 0x802B, offset: 0x802B, size: 0x8, addend: 0x0, symName: __ZNSt3__135__check_strict_weak_ordering_sortedB8ue170006IP10CoordinatePFbS1_S1_EEEvT_S5_RT0_, symObjAddr: 0x34AC, symBinAddr: 0x1000072CC, symSize: 0x18 }
  - { offsetInCU: 0x819E, offset: 0x819E, size: 0x8, addend: 0x0, symName: __ZNSt3__123__debug_randomize_rangeB8ue170006INS_17_ClassicAlgPolicyEP10CoordinateS3_EEvT0_T1_, symObjAddr: 0x34DC, symBinAddr: 0x1000072FC, symSize: 0x14 }
  - { offsetInCU: 0x81EF, offset: 0x81EF, size: 0x8, addend: 0x0, symName: __ZNSt3__119__partial_sort_implB8ue170006INS_17_ClassicAlgPolicyERPFb10CoordinateS2_EPS2_S6_EET1_S7_S7_T2_OT0_, symObjAddr: 0x34F0, symBinAddr: 0x100007310, symSize: 0x134 }
  - { offsetInCU: 0x8285, offset: 0x8285, size: 0x8, addend: 0x0, symName: __ZNSt3__111__make_heapB8ue170006INS_17_ClassicAlgPolicyERPFb10CoordinateS2_EPS2_EEvT1_S7_OT0_, symObjAddr: 0x3624, symBinAddr: 0x100007444, symSize: 0xB8 }
  - { offsetInCU: 0x8327, offset: 0x8327, size: 0x8, addend: 0x0, symName: __ZNSt3__111__sort_heapB8ue170006INS_17_ClassicAlgPolicyERPFb10CoordinateS2_EPS2_EEvT1_S7_OT0_, symObjAddr: 0x39A0, symBinAddr: 0x1000077C0, symSize: 0xA8 }
  - { offsetInCU: 0x83C9, offset: 0x83C9, size: 0x8, addend: 0x0, symName: __ZNSt3__19iter_swapB8ue170006IP10CoordinateS2_EEvT_T0_, symObjAddr: 0x3A48, symBinAddr: 0x100007868, symSize: 0x2C }
  - { offsetInCU: 0x8411, offset: 0x8411, size: 0x8, addend: 0x0, symName: __ZNSt3__14swapB8ue170006I10CoordinateEEvRT_S3_, symObjAddr: 0x3A74, symBinAddr: 0x100007894, symSize: 0x3C }
  - { offsetInCU: 0x8486, offset: 0x8486, size: 0x8, addend: 0x0, symName: __ZNSt3__110__pop_heapB8ue170006INS_17_ClassicAlgPolicyEPFb10CoordinateS2_EPS2_EEvT1_S6_RT0_NS_15iterator_traitsIS6_E15difference_typeE, symObjAddr: 0x3ADC, symBinAddr: 0x1000078FC, symSize: 0xF4 }
  - { offsetInCU: 0x8536, offset: 0x8536, size: 0x8, addend: 0x0, symName: __ZNSt3__19__sift_upB8ue170006INS_17_ClassicAlgPolicyERPFb10CoordinateS2_EPS2_EEvT1_S7_OT0_NS_15iterator_traitsIS7_E15difference_typeE, symObjAddr: 0x3CF0, symBinAddr: 0x100007B10, symSize: 0x160 }
  - { offsetInCU: 0x8639, offset: 0x8639, size: 0x8, addend: 0x0, symName: __ZNSt3__112__to_addressB8ue170006INS_11__wrap_iterIP10CoordinateEEvEEu7__decayIDTclsr19__to_address_helperIT_EE6__callclsr3stdE7declvalIRKS5_EEEEES7_, symObjAddr: 0x3E78, symBinAddr: 0x100007C98, symSize: 0x24 }
  - { offsetInCU: 0x8714, offset: 0x8714, size: 0x8, addend: 0x0, symName: __ZNSt3__17__log2iB8ue170006IlEET_S1_, symObjAddr: 0x3F10, symBinAddr: 0x100007D30, symSize: 0x54 }
  - { offsetInCU: 0x874B, offset: 0x874B, size: 0x8, addend: 0x0, symName: __ZNSt3__112__libcpp_clzB8ue170006Em, symObjAddr: 0x4470, symBinAddr: 0x100008290, symSize: 0x1C }
  - { offsetInCU: 0x8777, offset: 0x8777, size: 0x8, addend: 0x0, symName: __ZNSt3__124__sort3_maybe_branchlessB8ue170006INS_17_ClassicAlgPolicyERPFb10CoordinateS2_EPS2_EENS_9enable_ifIXntsr21__use_branchless_sortIT0_T1_EE5valueEvE4typeES9_S9_S9_S8_, symObjAddr: 0x448C, symBinAddr: 0x1000082AC, symSize: 0x3C }
  - { offsetInCU: 0x87E8, offset: 0x87E8, size: 0x8, addend: 0x0, symName: __ZNSt3__124__sort4_maybe_branchlessB8ue170006INS_17_ClassicAlgPolicyERPFb10CoordinateS2_EPS2_EENS_9enable_ifIXntsr21__use_branchless_sortIT0_T1_EE5valueEvE4typeES9_S9_S9_S9_S8_, symObjAddr: 0x44C8, symBinAddr: 0x1000082E8, symSize: 0x44 }
  - { offsetInCU: 0x8867, offset: 0x8867, size: 0x8, addend: 0x0, symName: __ZNSt3__124__sort5_maybe_branchlessB8ue170006INS_17_ClassicAlgPolicyERPFb10CoordinateS2_EPS2_EENS_9enable_ifIXntsr21__use_branchless_sortIT0_T1_EE5valueEvE4typeES9_S9_S9_S9_S9_S8_, symObjAddr: 0x450C, symBinAddr: 0x10000832C, symSize: 0x4C }
  - { offsetInCU: 0x88F4, offset: 0x88F4, size: 0x8, addend: 0x0, symName: __ZNSt3__116__insertion_sortB8ue170006INS_17_ClassicAlgPolicyERPFb10CoordinateS2_EPS2_EEvT1_S7_T0_, symObjAddr: 0x4558, symBinAddr: 0x100008378, symSize: 0x194 }
  - { offsetInCU: 0x89B8, offset: 0x89B8, size: 0x8, addend: 0x0, symName: __ZNSt3__114__partial_sortB8ue170006INS_17_ClassicAlgPolicyERPFb10CoordinateS2_EPS2_S6_EET1_S7_S7_T2_RT0_, symObjAddr: 0x4850, symBinAddr: 0x100008670, symSize: 0x94 }
  - { offsetInCU: 0x8A40, offset: 0x8A40, size: 0x8, addend: 0x0, symName: __ZNSt3__17__sort3B8ue170006INS_17_ClassicAlgPolicyERPFb10CoordinateS2_EPS2_EEjT1_S7_S7_T0_, symObjAddr: 0x48E4, symBinAddr: 0x100008704, symSize: 0x1F8 }
  - { offsetInCU: 0x8ABF, offset: 0x8ABF, size: 0x8, addend: 0x0, symName: __ZNSt3__17__sort4B8ue170006INS_17_ClassicAlgPolicyERPFb10CoordinateS2_EPS2_EEvT1_S7_S7_S7_T0_, symObjAddr: 0x5834, symBinAddr: 0x100009654, symSize: 0x124 }
  - { offsetInCU: 0x8B3A, offset: 0x8B3A, size: 0x8, addend: 0x0, symName: __ZNSt3__17__sort5B8ue170006INS_17_ClassicAlgPolicyERPFb10CoordinateS2_EPS2_EEvT1_S7_S7_S7_S7_T0_, symObjAddr: 0x5958, symBinAddr: 0x100009778, symSize: 0x178 }
  - { offsetInCU: 0x8BC3, offset: 0x8BC3, size: 0x8, addend: 0x0, symName: __ZNSt3__122__populate_left_bitsetB8ue170006IRPFb10CoordinateS1_EPS1_S1_EEvT0_T_RT1_Ry, symObjAddr: 0x5AD0, symBinAddr: 0x1000098F0, symSize: 0xCC }
  - { offsetInCU: 0x8C7E, offset: 0x8C7E, size: 0x8, addend: 0x0, symName: __ZNSt3__123__populate_right_bitsetB8ue170006IRPFb10CoordinateS1_EPS1_S1_EEvT0_T_RT1_Ry, symObjAddr: 0x5B9C, symBinAddr: 0x1000099BC, symSize: 0xC4 }
  - { offsetInCU: 0x8D39, offset: 0x8D39, size: 0x8, addend: 0x0, symName: __ZNSt3__117__swap_bitmap_posB8ue170006INS_17_ClassicAlgPolicyEP10CoordinateEEvT0_S4_RyS5_, symObjAddr: 0x5C60, symBinAddr: 0x100009A80, symSize: 0x100 }
  - { offsetInCU: 0x8DDA, offset: 0x8DDA, size: 0x8, addend: 0x0, symName: __ZNSt3__133__bitset_partition_partial_blocksB8ue170006INS_17_ClassicAlgPolicyERPFb10CoordinateS2_EPS2_S2_EEvRT1_S8_T0_RT2_RySC_, symObjAddr: 0x5D60, symBinAddr: 0x100009B80, symSize: 0x330 }
  - { offsetInCU: 0x8F5E, offset: 0x8F5E, size: 0x8, addend: 0x0, symName: __ZNSt3__19make_pairB8ue170006IRP10CoordinateRbEENS_4pairINS_18__unwrap_ref_decayIT_E4typeENS6_IT0_E4typeEEEOS7_OSA_, symObjAddr: 0x6270, symBinAddr: 0x10000A090, symSize: 0x38 }
  - { offsetInCU: 0x8FAD, offset: 0x8FAD, size: 0x8, addend: 0x0, symName: __ZNSt3__112__libcpp_ctzB8ue170006Ey, symObjAddr: 0x62A8, symBinAddr: 0x10000A0C8, symSize: 0x20 }
  - { offsetInCU: 0x8FD9, offset: 0x8FD9, size: 0x8, addend: 0x0, symName: __ZNSt3__113__libcpp_blsrB8ue170006Ey, symObjAddr: 0x62C8, symBinAddr: 0x10000A0E8, symSize: 0x2C }
  - { offsetInCU: 0x9005, offset: 0x9005, size: 0x8, addend: 0x0, symName: __ZNSt3__112__libcpp_clzB8ue170006Ey, symObjAddr: 0x6328, symBinAddr: 0x10000A148, symSize: 0x1C }
  - { offsetInCU: 0x90DE, offset: 0x90DE, size: 0x8, addend: 0x0, symName: __ZNSt3__18distanceB8ue170006INS_11__wrap_iterIP10CoordinateEEEENS_15iterator_traitsIT_E15difference_typeES6_S6_, symObjAddr: 0x6670, symBinAddr: 0x10000A490, symSize: 0x3C }
  - { offsetInCU: 0x9121, offset: 0x9121, size: 0x8, addend: 0x0, symName: __ZNSt3__110__distanceB8ue170006INS_11__wrap_iterIP10CoordinateEEEENS_15iterator_traitsIT_E15difference_typeES6_S6_NS_26random_access_iterator_tagE, symObjAddr: 0x677C, symBinAddr: 0x10000A59C, symSize: 0x30 }
  - { offsetInCU: 0x916E, offset: 0x916E, size: 0x8, addend: 0x0, symName: __ZNSt3__1miB8ue170006IP10CoordinateS2_EENS_11__wrap_iterIT_E15difference_typeERKS5_RKNS3_IT0_EE, symObjAddr: 0x67AC, symBinAddr: 0x10000A5CC, symSize: 0x48 }
  - { offsetInCU: 0x91BA, offset: 0x91BA, size: 0x8, addend: 0x0, symName: __ZNSt3__130__uninitialized_allocator_copyB8ue170006INS_9allocatorI10CoordinateEENS_11__wrap_iterIPS2_EES6_S5_EET2_RT_T0_T1_S7_, symObjAddr: 0x6898, symBinAddr: 0x10000A6B8, symSize: 0x90 }
  - { offsetInCU: 0x9257, offset: 0x9257, size: 0x8, addend: 0x0, symName: __ZNSt3__114__unwrap_rangeB8ue170006INS_11__wrap_iterIP10CoordinateEES3_EENS_4pairIT0_S6_EET_S8_, symObjAddr: 0x6928, symBinAddr: 0x10000A748, symSize: 0x70 }
  - { offsetInCU: 0x92A3, offset: 0x92A3, size: 0x8, addend: 0x0, symName: __ZNSt3__142__uninitialized_allocator_move_if_noexceptB8ue170006INS_9allocatorI10CoordinateEENS_16reverse_iteratorIPS2_EES6_S2_vEET1_RT_T0_SA_S7_, symObjAddr: 0x6F5C, symBinAddr: 0x10000AD7C, symSize: 0xE8 }
  - { offsetInCU: 0x9320, offset: 0x9320, size: 0x8, addend: 0x0, symName: __ZNSt3__14swapB8ue170006IP10CoordinateEEvRT_S4_, symObjAddr: 0x7044, symBinAddr: 0x10000AE64, symSize: 0x3C }
  - { offsetInCU: 0x9396, offset: 0x9396, size: 0x8, addend: 0x0, symName: __ZNSt3__114__construct_atB8ue170006I10CoordinateJS1_EPS1_EEPT_S4_DpOT0_, symObjAddr: 0x7080, symBinAddr: 0x10000AEA0, symSize: 0x2C }
  - { offsetInCU: 0x9406, offset: 0x9406, size: 0x8, addend: 0x0, symName: __ZNSt3__14moveB8ue170006INS_16reverse_iteratorIP10CoordinateEES4_EET0_T_S6_S5_, symObjAddr: 0x70AC, symBinAddr: 0x10000AECC, symSize: 0x78 }
  - { offsetInCU: 0x9460, offset: 0x9460, size: 0x8, addend: 0x0, symName: __ZNSt3__16__moveB8ue170006INS_17_ClassicAlgPolicyENS_16reverse_iteratorIP10CoordinateEES5_S5_EENS_4pairIT0_T2_EES7_T1_S8_, symObjAddr: 0x7124, symBinAddr: 0x10000AF44, symSize: 0x64 }
  - { offsetInCU: 0x94CC, offset: 0x94CC, size: 0x8, addend: 0x0, symName: __ZNSt3__123__dispatch_copy_or_moveB8ue170006INS_17_ClassicAlgPolicyENS_11__move_loopIS1_EENS_14__move_trivialENS_16reverse_iteratorIP10CoordinateEES8_S8_EENS_4pairIT2_T4_EESA_T3_SB_, symObjAddr: 0x7188, symBinAddr: 0x10000AFA8, symSize: 0x64 }
  - { offsetInCU: 0x954A, offset: 0x954A, size: 0x8, addend: 0x0, symName: __ZNSt3__121__unwrap_and_dispatchB8ue170006INS_10__overloadINS_11__move_loopINS_17_ClassicAlgPolicyEEENS_14__move_trivialEEENS_16reverse_iteratorIP10CoordinateEESA_SA_Li0EEENS_4pairIT0_T2_EESC_T1_SD_, symObjAddr: 0x71EC, symBinAddr: 0x10000B00C, symSize: 0x12C }
  - { offsetInCU: 0x95DA, offset: 0x95DA, size: 0x8, addend: 0x0, symName: __ZNSt3__114__unwrap_rangeB8ue170006INS_16reverse_iteratorIP10CoordinateEES4_EENS_4pairIT0_S6_EET_S8_, symObjAddr: 0x7318, symBinAddr: 0x10000B138, symSize: 0x84 }
  - { offsetInCU: 0x9725, offset: 0x9725, size: 0x8, addend: 0x0, symName: __ZNSt3__113__unwrap_iterB8ue170006INS_16reverse_iteratorIP10CoordinateEENS_18__unwrap_iter_implIS4_Lb0EEELi0EEEDTclsrT0_8__unwrapclsr3stdE7declvalIT_EEEES8_, symObjAddr: 0x743C, symBinAddr: 0x10000B25C, symSize: 0x44 }
  - { offsetInCU: 0x9769, offset: 0x9769, size: 0x8, addend: 0x0, symName: __ZNSt3__19make_pairB8ue170006INS_16reverse_iteratorIP10CoordinateEES4_EENS_4pairINS_18__unwrap_ref_decayIT_E4typeENS6_IT0_E4typeEEEOS7_OSA_, symObjAddr: 0x7480, symBinAddr: 0x10000B2A0, symSize: 0x38 }
  - { offsetInCU: 0x97B8, offset: 0x97B8, size: 0x8, addend: 0x0, symName: __ZNSt3__114__rewrap_rangeB8ue170006INS_16reverse_iteratorIP10CoordinateEES4_EET_S5_T0_, symObjAddr: 0x74B8, symBinAddr: 0x10000B2D8, symSize: 0x5C }
  - { offsetInCU: 0x9804, offset: 0x9804, size: 0x8, addend: 0x0, symName: __ZNSt3__113__rewrap_iterB8ue170006INS_16reverse_iteratorIP10CoordinateEES4_NS_18__unwrap_iter_implIS4_Lb0EEEEET_S7_T0_, symObjAddr: 0x7514, symBinAddr: 0x10000B334, symSize: 0x88 }
  - { offsetInCU: 0x98A1, offset: 0x98A1, size: 0x8, addend: 0x0, symName: __ZNSt3__19use_facetB8ue170006INS_5ctypeIcEEEERKT_RKNS_6localeE, symObjAddr: 0x7934, symBinAddr: 0x10000B754, symSize: 0x2C }
  - { offsetInCU: 0xA015, offset: 0xA015, size: 0x8, addend: 0x0, symName: __ZSt28__throw_bad_array_new_lengthB8ue170006v, symObjAddr: 0x1950, symBinAddr: 0x100005770, symSize: 0x34 }
  - { offsetInCU: 0xA546, offset: 0xA546, size: 0x8, addend: 0x0, symName: __ZNSt3__16vectorI10CoordinateNS_9allocatorIS1_EEE26__swap_out_circular_bufferERNS_14__split_bufferIS1_RS3_EE, symObjAddr: 0x6BF4, symBinAddr: 0x10000AA14, symSize: 0x110 }
  - { offsetInCU: 0xC8D8, offset: 0xC8D8, size: 0x8, addend: 0x0, symName: __Z14compare_coor_x10CoordinateS_, symObjAddr: 0x0, symBinAddr: 0x100003E20, symSize: 0x30 }
  - { offsetInCU: 0xC912, offset: 0xC912, size: 0x8, addend: 0x0, symName: __Z14compare_coor_y10CoordinateS_, symObjAddr: 0x30, symBinAddr: 0x100003E50, symSize: 0x30 }
  - { offsetInCU: 0xC94C, offset: 0xC94C, size: 0x8, addend: 0x0, symName: __Z4dist10CoordinateS_, symObjAddr: 0x60, symBinAddr: 0x100003E80, symSize: 0x60 }
  - { offsetInCU: 0xC994, offset: 0xC994, size: 0x8, addend: 0x0, symName: __Z10bruteForceNSt3__16vectorI10CoordinateNS_9allocatorIS1_EEEEi, symObjAddr: 0xC0, symBinAddr: 0x100003EE0, symSize: 0x148 }
  - { offsetInCU: 0xCA24, offset: 0xCA24, size: 0x8, addend: 0x0, symName: __ZNSt3__16vectorI10CoordinateNS_9allocatorIS1_EEEixB8ue170006Em, symObjAddr: 0x208, symBinAddr: 0x100004028, symSize: 0x24 }
  - { offsetInCU: 0xCA59, offset: 0xCA59, size: 0x8, addend: 0x0, symName: __Z16point_across_midNSt3__16vectorI10CoordinateNS_9allocatorIS1_EEEEid, symObjAddr: 0x22C, symBinAddr: 0x10000404C, symSize: 0x26C }
  - { offsetInCU: 0xCAEC, offset: 0xCAEC, size: 0x8, addend: 0x0, symName: __ZNSt3__16vectorI10CoordinateNS_9allocatorIS1_EEEC1Em, symObjAddr: 0x498, symBinAddr: 0x1000042B8, symSize: 0x34 }
  - { offsetInCU: 0xCB25, offset: 0xCB25, size: 0x8, addend: 0x0, symName: __ZNSt3__16vectorI10CoordinateNS_9allocatorIS1_EEEaSB8ue170006ERKS4_, symObjAddr: 0x4CC, symBinAddr: 0x1000042EC, symSize: 0x68 }
  - { offsetInCU: 0xCB5A, offset: 0xCB5A, size: 0x8, addend: 0x0, symName: __ZNSt3__16vectorI10CoordinateNS_9allocatorIS1_EEE5beginB8ue170006Ev, symObjAddr: 0x57C, symBinAddr: 0x10000439C, symSize: 0x30 }
  - { offsetInCU: 0xCB80, offset: 0xCB80, size: 0x8, addend: 0x0, symName: __ZNSt3__16vectorI10CoordinateNS_9allocatorIS1_EEE3endB8ue170006Ev, symObjAddr: 0x5AC, symBinAddr: 0x1000043CC, symSize: 0x30 }
  - { offsetInCU: 0xCBA7, offset: 0xCBA7, size: 0x8, addend: 0x0, symName: __ZNSt3__16vectorI10CoordinateNS_9allocatorIS1_EEE5clearB8ue170006Ev, symObjAddr: 0x5DC, symBinAddr: 0x1000043FC, symSize: 0x44 }
  - { offsetInCU: 0xCBDB, offset: 0xCBDB, size: 0x8, addend: 0x0, symName: __ZNSt3__16vectorI10CoordinateNS_9allocatorIS1_EEED1B8ue170006Ev, symObjAddr: 0x620, symBinAddr: 0x100004440, symSize: 0x2C }
  - { offsetInCU: 0xCC03, offset: 0xCC03, size: 0x8, addend: 0x0, symName: __Z14divide_conquerNSt3__16vectorI10CoordinateNS_9allocatorIS1_EEEEi, symObjAddr: 0x658, symBinAddr: 0x100004478, symSize: 0x314 }
  - { offsetInCU: 0xCCD4, offset: 0xCCD4, size: 0x8, addend: 0x0, symName: __ZNSt3__16vectorI10CoordinateNS_9allocatorIS1_EEEC1ERKS4_, symObjAddr: 0x96C, symBinAddr: 0x10000478C, symSize: 0x34 }
  - { offsetInCU: 0xCD0E, offset: 0xCD0E, size: 0x8, addend: 0x0, symName: __ZNKSt3__111__wrap_iterIP10CoordinateEplB8ue170006El, symObjAddr: 0x9A0, symBinAddr: 0x1000047C0, symSize: 0x3C }
  - { offsetInCU: 0xCD4F, offset: 0xCD4F, size: 0x8, addend: 0x0, symName: __ZNSt3__16vectorI10CoordinateNS_9allocatorIS1_EEEC1INS_11__wrap_iterIPS1_EELi0EEET_S9_, symObjAddr: 0x9DC, symBinAddr: 0x1000047FC, symSize: 0x3C }
  - { offsetInCU: 0xCDA7, offset: 0xCDA7, size: 0x8, addend: 0x0, symName: __ZNSt3__16vectorI10CoordinateNS_9allocatorIS1_EEEC1B8ue170006Ev, symObjAddr: 0xA18, symBinAddr: 0x100004838, symSize: 0x2C }
  - { offsetInCU: 0xCDCF, offset: 0xCDCF, size: 0x8, addend: 0x0, symName: __Z3absB8ue170006d, symObjAddr: 0xA44, symBinAddr: 0x100004864, symSize: 0x18 }
  - { offsetInCU: 0xCDFB, offset: 0xCDFB, size: 0x8, addend: 0x0, symName: __ZNSt3__16vectorI10CoordinateNS_9allocatorIS1_EEE9push_backB8ue170006ERKS1_, symObjAddr: 0xA5C, symBinAddr: 0x10000487C, symSize: 0x6C }
  - { offsetInCU: 0xCE31, offset: 0xCE31, size: 0x8, addend: 0x0, symName: __ZNKSt3__16vectorI10CoordinateNS_9allocatorIS1_EEE4sizeB8ue170006Ev, symObjAddr: 0xAC8, symBinAddr: 0x1000048E8, symSize: 0x28 }
  - { offsetInCU: 0xCE56, offset: 0xCE56, size: 0x8, addend: 0x0, symName: _main, symObjAddr: 0xAF0, symBinAddr: 0x100004910, symSize: 0x2D0 }
  - { offsetInCU: 0xCF96, offset: 0xCF96, size: 0x8, addend: 0x0, symName: __ZNSt3__19basic_iosIcNS_11char_traitsIcEEE3tieB8ue170006EPNS_13basic_ostreamIcS2_EE, symObjAddr: 0xDC0, symBinAddr: 0x100004BE0, symSize: 0x2C }
  - { offsetInCU: 0xCFDB, offset: 0xCFDB, size: 0x8, addend: 0x0, symName: __ZNSt3__113basic_ostreamIcNS_11char_traitsIcEEElsB8ue170006EPFRNS_8ios_baseES5_E, symObjAddr: 0xE2C, symBinAddr: 0x100004C4C, symSize: 0x40 }
  - { offsetInCU: 0xD00E, offset: 0xD00E, size: 0x8, addend: 0x0, symName: __ZNSt3__113basic_ostreamIcNS_11char_traitsIcEEElsB8ue170006EPFRS3_S4_E, symObjAddr: 0xEC8, symBinAddr: 0x100004CE8, symSize: 0x2C }
  - { offsetInCU: 0xD040, offset: 0xD040, size: 0x8, addend: 0x0, symName: __ZNSt3__18ios_base4setfB8ue170006Ejj, symObjAddr: 0xF4C, symBinAddr: 0x100004D6C, symSize: 0x5C }
  - { offsetInCU: 0xD094, offset: 0xD094, size: 0x8, addend: 0x0, symName: __ZNSt3__18ios_base6unsetfB8ue170006Ej, symObjAddr: 0xFA8, symBinAddr: 0x100004DC8, symSize: 0x28 }
  - { offsetInCU: 0xD0CA, offset: 0xD0CA, size: 0x8, addend: 0x0, symName: __ZNSt3__18__iom_t5C1B8ue170006Ei, symObjAddr: 0xFD0, symBinAddr: 0x100004DF0, symSize: 0x34 }
  - { offsetInCU: 0xD101, offset: 0xD101, size: 0x8, addend: 0x0, symName: __ZNSt3__18__iom_t5C2B8ue170006Ei, symObjAddr: 0x1004, symBinAddr: 0x100004E24, symSize: 0x20 }
  - { offsetInCU: 0xD138, offset: 0xD138, size: 0x8, addend: 0x0, symName: __ZNSt3__16vectorI10CoordinateNS_9allocatorIS1_EEEC2Em, symObjAddr: 0x1024, symBinAddr: 0x100004E44, symSize: 0xDC }
  - { offsetInCU: 0xD192, offset: 0xD192, size: 0x8, addend: 0x0, symName: __ZNSt3__117__compressed_pairIP10CoordinateNS_9allocatorIS1_EEEC1B8ue170006IDnNS_18__default_init_tagEEEOT_OT0_, symObjAddr: 0x1100, symBinAddr: 0x100004F20, symSize: 0x3C }
  - { offsetInCU: 0xD1E9, offset: 0xD1E9, size: 0x8, addend: 0x0, symName: __ZNSt3__16vectorI10CoordinateNS_9allocatorIS1_EEE16__destroy_vectorC1B8ue170006ERS4_, symObjAddr: 0x117C, symBinAddr: 0x100004F9C, symSize: 0x34 }
  - { offsetInCU: 0xD221, offset: 0xD221, size: 0x8, addend: 0x0, symName: __ZNSt3__16vectorI10CoordinateNS_9allocatorIS1_EEE11__vallocateB8ue170006Em, symObjAddr: 0x11B0, symBinAddr: 0x100004FD0, symSize: 0xAC }
  - { offsetInCU: 0xD263, offset: 0xD263, size: 0x8, addend: 0x0, symName: __ZNSt3__16vectorI10CoordinateNS_9allocatorIS1_EEE18__construct_at_endEm, symObjAddr: 0x125C, symBinAddr: 0x10000507C, symSize: 0xD0 }
  - { offsetInCU: 0xD2D4, offset: 0xD2D4, size: 0x8, addend: 0x0, symName: __ZNSt3__128__exception_guard_exceptionsINS_6vectorI10CoordinateNS_9allocatorIS2_EEE16__destroy_vectorEE10__completeB8ue170006Ev, symObjAddr: 0x132C, symBinAddr: 0x10000514C, symSize: 0x1C }
  - { offsetInCU: 0xD2F9, offset: 0xD2F9, size: 0x8, addend: 0x0, symName: __ZNSt3__128__exception_guard_exceptionsINS_6vectorI10CoordinateNS_9allocatorIS2_EEE16__destroy_vectorEED1B8ue170006Ev, symObjAddr: 0x1348, symBinAddr: 0x100005168, symSize: 0x2C }
  - { offsetInCU: 0xD322, offset: 0xD322, size: 0x8, addend: 0x0, symName: __ZNSt3__117__compressed_pairIP10CoordinateNS_9allocatorIS1_EEEC2B8ue170006IDnNS_18__default_init_tagEEEOT_OT0_, symObjAddr: 0x1374, symBinAddr: 0x100005194, symSize: 0x40 }
  - { offsetInCU: 0xD379, offset: 0xD379, size: 0x8, addend: 0x0, symName: __ZNSt3__122__compressed_pair_elemIP10CoordinateLi0ELb0EEC2B8ue170006IDnvEEOT_, symObjAddr: 0x13B4, symBinAddr: 0x1000051D4, symSize: 0x1C }
  - { offsetInCU: 0xD3BA, offset: 0xD3BA, size: 0x8, addend: 0x0, symName: __ZNSt3__122__compressed_pair_elemINS_9allocatorI10CoordinateEELi1ELb1EEC2B8ue170006ENS_18__default_init_tagE, symObjAddr: 0x13D0, symBinAddr: 0x1000051F0, symSize: 0x2C }
  - { offsetInCU: 0xD3ED, offset: 0xD3ED, size: 0x8, addend: 0x0, symName: __ZNSt3__19allocatorI10CoordinateEC2B8ue170006Ev, symObjAddr: 0x13FC, symBinAddr: 0x10000521C, symSize: 0x2C }
  - { offsetInCU: 0xD416, offset: 0xD416, size: 0x8, addend: 0x0, symName: __ZNSt3__116__non_trivial_ifILb1ENS_9allocatorI10CoordinateEEEC2B8ue170006Ev, symObjAddr: 0x1428, symBinAddr: 0x100005248, symSize: 0x14 }
  - { offsetInCU: 0xD43F, offset: 0xD43F, size: 0x8, addend: 0x0, symName: __ZNSt3__128__exception_guard_exceptionsINS_6vectorI10CoordinateNS_9allocatorIS2_EEE16__destroy_vectorEEC1B8ue170006ES6_, symObjAddr: 0x143C, symBinAddr: 0x10000525C, symSize: 0x34 }
  - { offsetInCU: 0xD476, offset: 0xD476, size: 0x8, addend: 0x0, symName: __ZNSt3__128__exception_guard_exceptionsINS_6vectorI10CoordinateNS_9allocatorIS2_EEE16__destroy_vectorEEC2B8ue170006ES6_, symObjAddr: 0x1470, symBinAddr: 0x100005290, symSize: 0x24 }
  - { offsetInCU: 0xD4AD, offset: 0xD4AD, size: 0x8, addend: 0x0, symName: __ZNSt3__16vectorI10CoordinateNS_9allocatorIS1_EEE16__destroy_vectorC2B8ue170006ERS4_, symObjAddr: 0x1494, symBinAddr: 0x1000052B4, symSize: 0x20 }
  - { offsetInCU: 0xD4E4, offset: 0xD4E4, size: 0x8, addend: 0x0, symName: __ZNKSt3__16vectorI10CoordinateNS_9allocatorIS1_EEE8max_sizeEv, symObjAddr: 0x14B4, symBinAddr: 0x1000052D4, symSize: 0x74 }
  - { offsetInCU: 0xD50B, offset: 0xD50B, size: 0x8, addend: 0x0, symName: __ZNKSt3__16vectorI10CoordinateNS_9allocatorIS1_EEE20__throw_length_errorB8ue170006Ev, symObjAddr: 0x1528, symBinAddr: 0x100005348, symSize: 0x1C }
  - { offsetInCU: 0xD530, offset: 0xD530, size: 0x8, addend: 0x0, symName: __ZNSt3__16vectorI10CoordinateNS_9allocatorIS1_EEE7__allocB8ue170006Ev, symObjAddr: 0x1584, symBinAddr: 0x1000053A4, symSize: 0x28 }
  - { offsetInCU: 0xD555, offset: 0xD555, size: 0x8, addend: 0x0, symName: __ZNSt3__16vectorI10CoordinateNS_9allocatorIS1_EEE9__end_capB8ue170006Ev, symObjAddr: 0x15AC, symBinAddr: 0x1000053CC, symSize: 0x28 }
  - { offsetInCU: 0xD57A, offset: 0xD57A, size: 0x8, addend: 0x0, symName: __ZNKSt3__16vectorI10CoordinateNS_9allocatorIS1_EEE14__annotate_newB8ue170006Em, symObjAddr: 0x15D4, symBinAddr: 0x1000053F4, symSize: 0xAC }
  - { offsetInCU: 0xD5B8, offset: 0xD5B8, size: 0x8, addend: 0x0, symName: __ZNSt3__116allocator_traitsINS_9allocatorI10CoordinateEEE8max_sizeB8ue170006IS3_vEEmRKS3_, symObjAddr: 0x16AC, symBinAddr: 0x1000054CC, symSize: 0x24 }
  - { offsetInCU: 0xD5E6, offset: 0xD5E6, size: 0x8, addend: 0x0, symName: __ZNKSt3__16vectorI10CoordinateNS_9allocatorIS1_EEE7__allocB8ue170006Ev, symObjAddr: 0x16D0, symBinAddr: 0x1000054F0, symSize: 0x28 }
  - { offsetInCU: 0xD60B, offset: 0xD60B, size: 0x8, addend: 0x0, symName: __ZNSt3__114numeric_limitsIlE3maxB8ue170006Ev, symObjAddr: 0x16F8, symBinAddr: 0x100005518, symSize: 0x14 }
  - { offsetInCU: 0xD633, offset: 0xD633, size: 0x8, addend: 0x0, symName: __ZNKSt3__16__lessIvvEclB8ue170006ImmEEbRKT_RKT0_, symObjAddr: 0x1760, symBinAddr: 0x100005580, symSize: 0x34 }
  - { offsetInCU: 0xD686, offset: 0xD686, size: 0x8, addend: 0x0, symName: __ZNKSt3__19allocatorI10CoordinateE8max_sizeB8ue170006Ev, symObjAddr: 0x1794, symBinAddr: 0x1000055B4, symSize: 0x14 }
  - { offsetInCU: 0xD6AB, offset: 0xD6AB, size: 0x8, addend: 0x0, symName: __ZNKSt3__117__compressed_pairIP10CoordinateNS_9allocatorIS1_EEE6secondB8ue170006Ev, symObjAddr: 0x17A8, symBinAddr: 0x1000055C8, symSize: 0x24 }
  - { offsetInCU: 0xD6D0, offset: 0xD6D0, size: 0x8, addend: 0x0, symName: __ZNKSt3__122__compressed_pair_elemINS_9allocatorI10CoordinateEELi1ELb1EE5__getB8ue170006Ev, symObjAddr: 0x17CC, symBinAddr: 0x1000055EC, symSize: 0x14 }
  - { offsetInCU: 0xD6F5, offset: 0xD6F5, size: 0x8, addend: 0x0, symName: __ZNSt3__123__libcpp_numeric_limitsIlLb1EE3maxB8ue170006Ev, symObjAddr: 0x17E0, symBinAddr: 0x100005600, symSize: 0x8 }
  - { offsetInCU: 0xD709, offset: 0xD709, size: 0x8, addend: 0x0, symName: __ZNSt12length_errorC1B8ue170006EPKc, symObjAddr: 0x184C, symBinAddr: 0x10000566C, symSize: 0x34 }
  - { offsetInCU: 0xD740, offset: 0xD740, size: 0x8, addend: 0x0, symName: __ZNSt12length_errorC2B8ue170006EPKc, symObjAddr: 0x1880, symBinAddr: 0x1000056A0, symSize: 0x4C }
  - { offsetInCU: 0xD777, offset: 0xD777, size: 0x8, addend: 0x0, symName: __ZNSt3__19allocatorI10CoordinateE8allocateB8ue170006Em, symObjAddr: 0x18CC, symBinAddr: 0x1000056EC, symSize: 0x84 }
  - { offsetInCU: 0xD7AA, offset: 0xD7AA, size: 0x8, addend: 0x0, symName: __ZNSt3__117__compressed_pairIP10CoordinateNS_9allocatorIS1_EEE6secondB8ue170006Ev, symObjAddr: 0x19DC, symBinAddr: 0x1000057FC, symSize: 0x24 }
  - { offsetInCU: 0xD7CF, offset: 0xD7CF, size: 0x8, addend: 0x0, symName: __ZNSt3__122__compressed_pair_elemINS_9allocatorI10CoordinateEELi1ELb1EE5__getB8ue170006Ev, symObjAddr: 0x1A00, symBinAddr: 0x100005820, symSize: 0x14 }
  - { offsetInCU: 0xD7F4, offset: 0xD7F4, size: 0x8, addend: 0x0, symName: __ZNSt3__117__compressed_pairIP10CoordinateNS_9allocatorIS1_EEE5firstB8ue170006Ev, symObjAddr: 0x1A14, symBinAddr: 0x100005834, symSize: 0x24 }
  - { offsetInCU: 0xD819, offset: 0xD819, size: 0x8, addend: 0x0, symName: __ZNSt3__122__compressed_pair_elemIP10CoordinateLi0ELb0EE5__getB8ue170006Ev, symObjAddr: 0x1A38, symBinAddr: 0x100005858, symSize: 0x14 }
  - { offsetInCU: 0xD83E, offset: 0xD83E, size: 0x8, addend: 0x0, symName: __ZNKSt3__16vectorI10CoordinateNS_9allocatorIS1_EEE31__annotate_contiguous_containerB8ue170006EPKvS6_S6_S6_, symObjAddr: 0x1A4C, symBinAddr: 0x10000586C, symSize: 0x20 }
  - { offsetInCU: 0xD88F, offset: 0xD88F, size: 0x8, addend: 0x0, symName: __ZNKSt3__16vectorI10CoordinateNS_9allocatorIS1_EEE4dataB8ue170006Ev, symObjAddr: 0x1A6C, symBinAddr: 0x10000588C, symSize: 0x28 }
  - { offsetInCU: 0xD8B4, offset: 0xD8B4, size: 0x8, addend: 0x0, symName: __ZNKSt3__16vectorI10CoordinateNS_9allocatorIS1_EEE8capacityB8ue170006Ev, symObjAddr: 0x1A94, symBinAddr: 0x1000058B4, symSize: 0x40 }
  - { offsetInCU: 0xD8D9, offset: 0xD8D9, size: 0x8, addend: 0x0, symName: __ZNKSt3__16vectorI10CoordinateNS_9allocatorIS1_EEE9__end_capB8ue170006Ev, symObjAddr: 0x1AE8, symBinAddr: 0x100005908, symSize: 0x28 }
  - { offsetInCU: 0xD8FE, offset: 0xD8FE, size: 0x8, addend: 0x0, symName: __ZNKSt3__117__compressed_pairIP10CoordinateNS_9allocatorIS1_EEE5firstB8ue170006Ev, symObjAddr: 0x1B10, symBinAddr: 0x100005930, symSize: 0x24 }
  - { offsetInCU: 0xD923, offset: 0xD923, size: 0x8, addend: 0x0, symName: __ZNKSt3__122__compressed_pair_elemIP10CoordinateLi0ELb0EE5__getB8ue170006Ev, symObjAddr: 0x1B34, symBinAddr: 0x100005954, symSize: 0x14 }
  - { offsetInCU: 0xD961, offset: 0xD961, size: 0x8, addend: 0x0, symName: __ZNSt3__16vectorI10CoordinateNS_9allocatorIS1_EEE21_ConstructTransactionC1B8ue170006ERS4_m, symObjAddr: 0x1B48, symBinAddr: 0x100005968, symSize: 0x3C }
  - { offsetInCU: 0xD9A8, offset: 0xD9A8, size: 0x8, addend: 0x0, symName: __ZNSt3__116allocator_traitsINS_9allocatorI10CoordinateEEE9constructB8ue170006IS2_JEvEEvRS3_PT_DpOT0_, symObjAddr: 0x1B84, symBinAddr: 0x1000059A4, symSize: 0x2C }
  - { offsetInCU: 0xD9EA, offset: 0xD9EA, size: 0x8, addend: 0x0, symName: __ZNSt3__16vectorI10CoordinateNS_9allocatorIS1_EEE21_ConstructTransactionD1B8ue170006Ev, symObjAddr: 0x1BB0, symBinAddr: 0x1000059D0, symSize: 0x2C }
  - { offsetInCU: 0xDA13, offset: 0xDA13, size: 0x8, addend: 0x0, symName: __ZNSt3__16vectorI10CoordinateNS_9allocatorIS1_EEE21_ConstructTransactionC2B8ue170006ERS4_m, symObjAddr: 0x1BDC, symBinAddr: 0x1000059FC, symSize: 0x44 }
  - { offsetInCU: 0xDA5A, offset: 0xDA5A, size: 0x8, addend: 0x0, symName: __ZNSt3__19allocatorI10CoordinateE9constructB8ue170006IS1_JEEEvPT_DpOT0_, symObjAddr: 0x1C20, symBinAddr: 0x100005A40, symSize: 0x20 }
  - { offsetInCU: 0xDA9B, offset: 0xDA9B, size: 0x8, addend: 0x0, symName: __ZNSt3__16vectorI10CoordinateNS_9allocatorIS1_EEE21_ConstructTransactionD2B8ue170006Ev, symObjAddr: 0x1C40, symBinAddr: 0x100005A60, symSize: 0x20 }
  - { offsetInCU: 0xDAC4, offset: 0xDAC4, size: 0x8, addend: 0x0, symName: __ZNSt3__128__exception_guard_exceptionsINS_6vectorI10CoordinateNS_9allocatorIS2_EEE16__destroy_vectorEED2B8ue170006Ev, symObjAddr: 0x1C60, symBinAddr: 0x100005A80, symSize: 0x48 }
  - { offsetInCU: 0xDAED, offset: 0xDAED, size: 0x8, addend: 0x0, symName: __ZNSt3__16vectorI10CoordinateNS_9allocatorIS1_EEE16__destroy_vectorclB8ue170006Ev, symObjAddr: 0x1CA8, symBinAddr: 0x100005AC8, symSize: 0x90 }
  - { offsetInCU: 0xDB12, offset: 0xDB12, size: 0x8, addend: 0x0, symName: __ZNSt3__16vectorI10CoordinateNS_9allocatorIS1_EEE7__clearB8ue170006Ev, symObjAddr: 0x1D38, symBinAddr: 0x100005B58, symSize: 0x28 }
  - { offsetInCU: 0xDB37, offset: 0xDB37, size: 0x8, addend: 0x0, symName: __ZNKSt3__16vectorI10CoordinateNS_9allocatorIS1_EEE17__annotate_deleteB8ue170006Ev, symObjAddr: 0x1D60, symBinAddr: 0x100005B80, symSize: 0xB8 }
  - { offsetInCU: 0xDB5C, offset: 0xDB5C, size: 0x8, addend: 0x0, symName: __ZNSt3__116allocator_traitsINS_9allocatorI10CoordinateEEE10deallocateB8ue170006ERS3_PS2_m, symObjAddr: 0x1E18, symBinAddr: 0x100005C38, symSize: 0x34 }
  - { offsetInCU: 0xDB9E, offset: 0xDB9E, size: 0x8, addend: 0x0, symName: __ZNSt3__16vectorI10CoordinateNS_9allocatorIS1_EEE22__base_destruct_at_endB8ue170006EPS1_, symObjAddr: 0x1E4C, symBinAddr: 0x100005C6C, symSize: 0xA0 }
  - { offsetInCU: 0xDBE1, offset: 0xDBE1, size: 0x8, addend: 0x0, symName: __ZNSt3__116allocator_traitsINS_9allocatorI10CoordinateEEE7destroyB8ue170006IS2_vEEvRS3_PT_, symObjAddr: 0x1EEC, symBinAddr: 0x100005D0C, symSize: 0x2C }
  - { offsetInCU: 0xDC1E, offset: 0xDC1E, size: 0x8, addend: 0x0, symName: __ZNSt3__19allocatorI10CoordinateE7destroyB8ue170006EPS1_, symObjAddr: 0x1F18, symBinAddr: 0x100005D38, symSize: 0x14 }
  - { offsetInCU: 0xDC51, offset: 0xDC51, size: 0x8, addend: 0x0, symName: __ZNSt3__19allocatorI10CoordinateE10deallocateB8ue170006EPS1_m, symObjAddr: 0x1F2C, symBinAddr: 0x100005D4C, symSize: 0x70 }
  - { offsetInCU: 0xDC92, offset: 0xDC92, size: 0x8, addend: 0x0, symName: __ZNSt3__16vectorI10CoordinateNS_9allocatorIS1_EEED2B8ue170006Ev, symObjAddr: 0x2018, symBinAddr: 0x100005E38, symSize: 0x3C }
  - { offsetInCU: 0xDCBB, offset: 0xDCBB, size: 0x8, addend: 0x0, symName: __ZNSt3__16vectorI10CoordinateNS_9allocatorIS1_EEE19__copy_assign_allocB8ue170006ERKS4_, symObjAddr: 0x2054, symBinAddr: 0x100005E74, symSize: 0x2C }
  - { offsetInCU: 0xDCEE, offset: 0xDCEE, size: 0x8, addend: 0x0, symName: __ZNSt3__16vectorI10CoordinateNS_9allocatorIS1_EEE6assignIPS1_Li0EEEvT_S7_, symObjAddr: 0x2080, symBinAddr: 0x100005EA0, symSize: 0x5C }
  - { offsetInCU: 0xDD42, offset: 0xDD42, size: 0x8, addend: 0x0, symName: __ZNSt3__16vectorI10CoordinateNS_9allocatorIS1_EEE19__copy_assign_allocB8ue170006ERKS4_NS_17integral_constantIbLb0EEE, symObjAddr: 0x20DC, symBinAddr: 0x100005EFC, symSize: 0x14 }
  - { offsetInCU: 0xDD7C, offset: 0xDD7C, size: 0x8, addend: 0x0, symName: __ZNSt3__16vectorI10CoordinateNS_9allocatorIS1_EEE18__assign_with_sizeB8ue170006IPS1_S6_EEvT_T0_l, symObjAddr: 0x20F0, symBinAddr: 0x100005F10, symSize: 0x164 }
  - { offsetInCU: 0xDE2A, offset: 0xDE2A, size: 0x8, addend: 0x0, symName: __ZNSt3__16vectorI10CoordinateNS_9allocatorIS1_EEE18__construct_at_endIPS1_S6_EEvT_T0_m, symObjAddr: 0x22F4, symBinAddr: 0x100006114, symSize: 0x94 }
  - { offsetInCU: 0xDE9F, offset: 0xDE9F, size: 0x8, addend: 0x0, symName: __ZNSt3__16vectorI10CoordinateNS_9allocatorIS1_EEE17__destruct_at_endB8ue170006EPS1_, symObjAddr: 0x23CC, symBinAddr: 0x1000061EC, symSize: 0x4C }
  - { offsetInCU: 0xDEE1, offset: 0xDEE1, size: 0x8, addend: 0x0, symName: __ZNSt3__16vectorI10CoordinateNS_9allocatorIS1_EEE13__vdeallocateEv, symObjAddr: 0x2418, symBinAddr: 0x100006238, symSize: 0x94 }
  - { offsetInCU: 0xDF07, offset: 0xDF07, size: 0x8, addend: 0x0, symName: __ZNKSt3__16vectorI10CoordinateNS_9allocatorIS1_EEE11__recommendB8ue170006Em, symObjAddr: 0x24AC, symBinAddr: 0x1000062CC, symSize: 0xB4 }
  - { offsetInCU: 0xDF74, offset: 0xDF74, size: 0x8, addend: 0x0, symName: __ZNSt3__14pairIP10CoordinateS2_EC1B8ue170006ERKS2_S5_, symObjAddr: 0x285C, symBinAddr: 0x10000667C, symSize: 0x3C }
  - { offsetInCU: 0xDFB9, offset: 0xDFB9, size: 0x8, addend: 0x0, symName: __ZNSt3__14pairIP10CoordinateS2_EC2B8ue170006ERKS2_S5_, symObjAddr: 0x2898, symBinAddr: 0x1000066B8, symSize: 0x34 }
  - { offsetInCU: 0xDFFE, offset: 0xDFFE, size: 0x8, addend: 0x0, symName: __ZNSt3__129_AllocatorDestroyRangeReverseINS_9allocatorI10CoordinateEEPS2_EC1B8ue170006ERS3_RS4_S7_, symObjAddr: 0x2918, symBinAddr: 0x100006738, symSize: 0x44 }
  - { offsetInCU: 0xE054, offset: 0xE054, size: 0x8, addend: 0x0, symName: __ZNSt3__116allocator_traitsINS_9allocatorI10CoordinateEEE9constructB8ue170006IS2_JRS2_EvEEvRS3_PT_DpOT0_, symObjAddr: 0x295C, symBinAddr: 0x10000677C, symSize: 0x34 }
  - { offsetInCU: 0xE0AB, offset: 0xE0AB, size: 0x8, addend: 0x0, symName: __ZNSt3__128__exception_guard_exceptionsINS_29_AllocatorDestroyRangeReverseINS_9allocatorI10CoordinateEEPS3_EEE10__completeB8ue170006Ev, symObjAddr: 0x2990, symBinAddr: 0x1000067B0, symSize: 0x1C }
  - { offsetInCU: 0xE0D0, offset: 0xE0D0, size: 0x8, addend: 0x0, symName: __ZNSt3__128__exception_guard_exceptionsINS_29_AllocatorDestroyRangeReverseINS_9allocatorI10CoordinateEEPS3_EEED1B8ue170006Ev, symObjAddr: 0x29AC, symBinAddr: 0x1000067CC, symSize: 0x2C }
  - { offsetInCU: 0xE0F9, offset: 0xE0F9, size: 0x8, addend: 0x0, symName: __ZNSt3__128__exception_guard_exceptionsINS_29_AllocatorDestroyRangeReverseINS_9allocatorI10CoordinateEEPS3_EEEC1B8ue170006ES6_, symObjAddr: 0x29D8, symBinAddr: 0x1000067F8, symSize: 0x34 }
  - { offsetInCU: 0xE131, offset: 0xE131, size: 0x8, addend: 0x0, symName: __ZNSt3__128__exception_guard_exceptionsINS_29_AllocatorDestroyRangeReverseINS_9allocatorI10CoordinateEEPS3_EEEC2B8ue170006ES6_, symObjAddr: 0x2A0C, symBinAddr: 0x10000682C, symSize: 0x30 }
  - { offsetInCU: 0xE169, offset: 0xE169, size: 0x8, addend: 0x0, symName: __ZNSt3__129_AllocatorDestroyRangeReverseINS_9allocatorI10CoordinateEEPS2_EC2B8ue170006ERS3_RS4_S7_, symObjAddr: 0x2A3C, symBinAddr: 0x10000685C, symSize: 0x38 }
  - { offsetInCU: 0xE1BF, offset: 0xE1BF, size: 0x8, addend: 0x0, symName: __ZNSt3__19allocatorI10CoordinateE9constructB8ue170006IS1_JRS1_EEEvPT_DpOT0_, symObjAddr: 0x2A74, symBinAddr: 0x100006894, symSize: 0x28 }
  - { offsetInCU: 0xE214, offset: 0xE214, size: 0x8, addend: 0x0, symName: __ZNSt3__128__exception_guard_exceptionsINS_29_AllocatorDestroyRangeReverseINS_9allocatorI10CoordinateEEPS3_EEED2B8ue170006Ev, symObjAddr: 0x2A9C, symBinAddr: 0x1000068BC, symSize: 0x48 }
  - { offsetInCU: 0xE23D, offset: 0xE23D, size: 0x8, addend: 0x0, symName: __ZNKSt3__129_AllocatorDestroyRangeReverseINS_9allocatorI10CoordinateEEPS2_EclB8ue170006Ev, symObjAddr: 0x2AE4, symBinAddr: 0x100006904, symSize: 0x68 }
  - { offsetInCU: 0xE262, offset: 0xE262, size: 0x8, addend: 0x0, symName: __ZNSt3__116reverse_iteratorIP10CoordinateEC1B8ue170006ES2_, symObjAddr: 0x2BBC, symBinAddr: 0x1000069DC, symSize: 0x34 }
  - { offsetInCU: 0xE299, offset: 0xE299, size: 0x8, addend: 0x0, symName: __ZNSt3__116reverse_iteratorIP10CoordinateEppB8ue170006Ev, symObjAddr: 0x2C5C, symBinAddr: 0x100006A7C, symSize: 0x20 }
  - { offsetInCU: 0xE2BE, offset: 0xE2BE, size: 0x8, addend: 0x0, symName: __ZNKSt3__116reverse_iteratorIP10CoordinateE4baseB8ue170006Ev, symObjAddr: 0x2C7C, symBinAddr: 0x100006A9C, symSize: 0x18 }
  - { offsetInCU: 0xE2E8, offset: 0xE2E8, size: 0x8, addend: 0x0, symName: __ZNSt3__119__to_address_helperINS_16reverse_iteratorIP10CoordinateEEvE6__callB8ue170006ERKS4_, symObjAddr: 0x2C94, symBinAddr: 0x100006AB4, symSize: 0x4C }
  - { offsetInCU: 0xE30B, offset: 0xE30B, size: 0x8, addend: 0x0, symName: __ZNKSt3__116reverse_iteratorIP10CoordinateEptB8ue170006Ev, symObjAddr: 0x2CE0, symBinAddr: 0x100006B00, symSize: 0x24 }
  - { offsetInCU: 0xE330, offset: 0xE330, size: 0x8, addend: 0x0, symName: __ZNKSt3__116reverse_iteratorIP10CoordinateEdeB8ue170006Ev, symObjAddr: 0x2D04, symBinAddr: 0x100006B24, symSize: 0x28 }
  - { offsetInCU: 0xE363, offset: 0xE363, size: 0x8, addend: 0x0, symName: __ZNSt3__116reverse_iteratorIP10CoordinateEC2B8ue170006ES2_, symObjAddr: 0x2D2C, symBinAddr: 0x100006B4C, symSize: 0x28 }
  - { offsetInCU: 0xE39A, offset: 0xE39A, size: 0x8, addend: 0x0, symName: __ZNSt3__118__unwrap_iter_implIP10CoordinateLb1EE8__unwrapB8ue170006ES2_, symObjAddr: 0x2D54, symBinAddr: 0x100006B74, symSize: 0x24 }
  - { offsetInCU: 0xE3BD, offset: 0xE3BD, size: 0x8, addend: 0x0, symName: __ZNSt3__118__unwrap_iter_implIP10CoordinateLb1EE8__rewrapB8ue170006ES2_S2_, symObjAddr: 0x2D78, symBinAddr: 0x100006B98, symSize: 0x50 }
  - { offsetInCU: 0xE3F8, offset: 0xE3F8, size: 0x8, addend: 0x0, symName: __ZNKSt3__114__copy_trivialclB8ue170006I10CoordinateS2_Li0EEENS_4pairIPT_PT0_EES5_S5_S7_, symObjAddr: 0x2EC0, symBinAddr: 0x100006CE0, symSize: 0x48 }
  - { offsetInCU: 0xE45F, offset: 0xE45F, size: 0x8, addend: 0x0, symName: __ZNKSt3__16vectorI10CoordinateNS_9allocatorIS1_EEE17__annotate_shrinkB8ue170006Em, symObjAddr: 0x308C, symBinAddr: 0x100006EAC, symSize: 0xB4 }
  - { offsetInCU: 0xE493, offset: 0xE493, size: 0x8, addend: 0x0, symName: __ZNSt3__16vectorI10CoordinateNS_9allocatorIS1_EEE11__make_iterB8ue170006EPS1_, symObjAddr: 0x31E8, symBinAddr: 0x100007008, symSize: 0x30 }
  - { offsetInCU: 0xE4C7, offset: 0xE4C7, size: 0x8, addend: 0x0, symName: __ZNSt3__111__wrap_iterIP10CoordinateEC1B8ue170006ES2_, symObjAddr: 0x3218, symBinAddr: 0x100007038, symSize: 0x34 }
  - { offsetInCU: 0xE4FE, offset: 0xE4FE, size: 0x8, addend: 0x0, symName: __ZNSt3__111__wrap_iterIP10CoordinateEC2B8ue170006ES2_, symObjAddr: 0x324C, symBinAddr: 0x10000706C, symSize: 0x20 }
  - { offsetInCU: 0xE535, offset: 0xE535, size: 0x8, addend: 0x0, symName: __ZNSt3__18_IterOpsINS_17_ClassicAlgPolicyEE4nextB8ue170006IP10CoordinateEET_S6_S6_, symObjAddr: 0x34C4, symBinAddr: 0x1000072E4, symSize: 0x18 }
  - { offsetInCU: 0xE56B, offset: 0xE56B, size: 0x8, addend: 0x0, symName: __ZNSt3__18_IterOpsINS_17_ClassicAlgPolicyEE9iter_swapB8ue170006IRP10CoordinateS6_EEvOT_OT0_, symObjAddr: 0x36DC, symBinAddr: 0x1000074FC, symSize: 0x34 }
  - { offsetInCU: 0xE5B3, offset: 0xE5B3, size: 0x8, addend: 0x0, symName: __ZNSt3__18_IterOpsINS_17_ClassicAlgPolicyEE11__iter_moveB8ue170006IRP10CoordinateEENS_9enable_ifIXsr12is_referenceIDTdeclsr3stdE7declvalIRT_EEEEE5valueEDTclsr3stdE4movedeclsr3stdE7declvalIS9_EEEEE4typeEOS8_, symObjAddr: 0x3AB0, symBinAddr: 0x1000078D0, symSize: 0x28 }
  - { offsetInCU: 0xE5DF, offset: 0xE5DF, size: 0x8, addend: 0x0, symName: __ZNSt3__18_IterOpsINS_17_ClassicAlgPolicyEE25__validate_iter_referenceB8ue170006IRP10CoordinateEEvv, symObjAddr: 0x3AD8, symBinAddr: 0x1000078F8, symSize: 0x4 }
  - { offsetInCU: 0xE5FD, offset: 0xE5FD, size: 0x8, addend: 0x0, symName: __ZNSt3__118__unwrap_iter_implINS_11__wrap_iterIP10CoordinateEELb1EE8__unwrapB8ue170006ES4_, symObjAddr: 0x3E50, symBinAddr: 0x100007C70, symSize: 0x28 }
  - { offsetInCU: 0xE62A, offset: 0xE62A, size: 0x8, addend: 0x0, symName: __ZNSt3__119__to_address_helperINS_11__wrap_iterIP10CoordinateEEvE6__callB8ue170006ERKS4_, symObjAddr: 0x3E9C, symBinAddr: 0x100007CBC, symSize: 0x30 }
  - { offsetInCU: 0xE64D, offset: 0xE64D, size: 0x8, addend: 0x0, symName: __ZNSt3__114pointer_traitsINS_11__wrap_iterIP10CoordinateEEE10to_addressB8ue170006ES4_, symObjAddr: 0x3ECC, symBinAddr: 0x100007CEC, symSize: 0x2C }
  - { offsetInCU: 0xE670, offset: 0xE670, size: 0x8, addend: 0x0, symName: __ZNKSt3__111__wrap_iterIP10CoordinateE4baseB8ue170006Ev, symObjAddr: 0x3EF8, symBinAddr: 0x100007D18, symSize: 0x18 }
  - { offsetInCU: 0xE69A, offset: 0xE69A, size: 0x8, addend: 0x0, symName: __ZNSt3__18_IterOpsINS_17_ClassicAlgPolicyEE9iter_swapB8ue170006IRP10CoordinateS5_EEvOT_OT0_, symObjAddr: 0x4ADC, symBinAddr: 0x1000088FC, symSize: 0x34 }
  - { offsetInCU: 0xE6DD, offset: 0xE6DD, size: 0x8, addend: 0x0, symName: __ZNSt3__18_IterOpsINS_17_ClassicAlgPolicyEE9iter_swapB8ue170006IP10CoordinateS5_EEvOT_OT0_, symObjAddr: 0x62F4, symBinAddr: 0x10000A114, symSize: 0x34 }
  - { offsetInCU: 0xE73E, offset: 0xE73E, size: 0x8, addend: 0x0, symName: __ZNSt3__14pairIP10CoordinatebEC1B8ue170006ERKS2_RKb, symObjAddr: 0x6344, symBinAddr: 0x10000A164, symSize: 0x3C }
  - { offsetInCU: 0xE783, offset: 0xE783, size: 0x8, addend: 0x0, symName: __ZNSt3__14pairIP10CoordinatebEC2B8ue170006ERKS2_RKb, symObjAddr: 0x6380, symBinAddr: 0x10000A1A0, symSize: 0x38 }
  - { offsetInCU: 0xE7C8, offset: 0xE7C8, size: 0x8, addend: 0x0, symName: __ZNSt3__16vectorI10CoordinateNS_9allocatorIS1_EEEC2ERKS4_, symObjAddr: 0x63B8, symBinAddr: 0x10000A1D8, symSize: 0x94 }
  - { offsetInCU: 0xE802, offset: 0xE802, size: 0x8, addend: 0x0, symName: __ZNSt3__116allocator_traitsINS_9allocatorI10CoordinateEEE37select_on_container_copy_constructionB8ue170006IS3_vvEES3_RKS3_, symObjAddr: 0x644C, symBinAddr: 0x10000A26C, symSize: 0x10 }
  - { offsetInCU: 0xE836, offset: 0xE836, size: 0x8, addend: 0x0, symName: __ZNSt3__117__compressed_pairIP10CoordinateNS_9allocatorIS1_EEEC1B8ue170006IDnS4_EEOT_OT0_, symObjAddr: 0x645C, symBinAddr: 0x10000A27C, symSize: 0x3C }
  - { offsetInCU: 0xE88D, offset: 0xE88D, size: 0x8, addend: 0x0, symName: __ZNSt3__16vectorI10CoordinateNS_9allocatorIS1_EEE16__init_with_sizeB8ue170006IPS1_S6_EEvT_T0_m, symObjAddr: 0x6498, symBinAddr: 0x10000A2B8, symSize: 0xC0 }
  - { offsetInCU: 0xE900, offset: 0xE900, size: 0x8, addend: 0x0, symName: __ZNSt3__117__compressed_pairIP10CoordinateNS_9allocatorIS1_EEEC2B8ue170006IDnS4_EEOT_OT0_, symObjAddr: 0x6558, symBinAddr: 0x10000A378, symSize: 0x44 }
  - { offsetInCU: 0xE957, offset: 0xE957, size: 0x8, addend: 0x0, symName: __ZNSt3__122__compressed_pair_elemINS_9allocatorI10CoordinateEELi1ELb1EEC2B8ue170006IS3_vEEOT_, symObjAddr: 0x659C, symBinAddr: 0x10000A3BC, symSize: 0x18 }
  - { offsetInCU: 0xE998, offset: 0xE998, size: 0x8, addend: 0x0, symName: __ZNSt3__111__wrap_iterIP10CoordinateEpLB8ue170006El, symObjAddr: 0x65B4, symBinAddr: 0x10000A3D4, symSize: 0x28 }
  - { offsetInCU: 0xE9CB, offset: 0xE9CB, size: 0x8, addend: 0x0, symName: __ZNSt3__16vectorI10CoordinateNS_9allocatorIS1_EEEC2INS_11__wrap_iterIPS1_EELi0EEET_S9_, symObjAddr: 0x65DC, symBinAddr: 0x10000A3FC, symSize: 0x94 }
  - { offsetInCU: 0xEA40, offset: 0xEA40, size: 0x8, addend: 0x0, symName: __ZNSt3__16vectorI10CoordinateNS_9allocatorIS1_EEE16__init_with_sizeB8ue170006INS_11__wrap_iterIPS1_EES8_EEvT_T0_m, symObjAddr: 0x66AC, symBinAddr: 0x10000A4CC, symSize: 0xD0 }
  - { offsetInCU: 0xEAB2, offset: 0xEAB2, size: 0x8, addend: 0x0, symName: __ZNSt3__16vectorI10CoordinateNS_9allocatorIS1_EEE18__construct_at_endINS_11__wrap_iterIPS1_EES8_EEvT_T0_m, symObjAddr: 0x67F4, symBinAddr: 0x10000A614, symSize: 0xA4 }
  - { offsetInCU: 0xEB27, offset: 0xEB27, size: 0x8, addend: 0x0, symName: __ZNSt3__16vectorI10CoordinateNS_9allocatorIS1_EEEC2B8ue170006Ev, symObjAddr: 0x6998, symBinAddr: 0x10000A7B8, symSize: 0x44 }
  - { offsetInCU: 0xEB50, offset: 0xEB50, size: 0x8, addend: 0x0, symName: __ZNSt3__16vectorI10CoordinateNS_9allocatorIS1_EEE22__construct_one_at_endB8ue170006IJRKS1_EEEvDpOT_, symObjAddr: 0x69DC, symBinAddr: 0x10000A7FC, symSize: 0x98 }
  - { offsetInCU: 0xEB9D, offset: 0xEB9D, size: 0x8, addend: 0x0, symName: __ZNSt3__16vectorI10CoordinateNS_9allocatorIS1_EEE21__push_back_slow_pathIRKS1_EEvOT_, symObjAddr: 0x6A74, symBinAddr: 0x10000A894, symSize: 0xE0 }
  - { offsetInCU: 0xEBFA, offset: 0xEBFA, size: 0x8, addend: 0x0, symName: __ZNSt3__116allocator_traitsINS_9allocatorI10CoordinateEEE9constructB8ue170006IS2_JRKS2_EvEEvRS3_PT_DpOT0_, symObjAddr: 0x6B54, symBinAddr: 0x10000A974, symSize: 0x34 }
  - { offsetInCU: 0xEC51, offset: 0xEC51, size: 0x8, addend: 0x0, symName: __ZNSt3__19allocatorI10CoordinateE9constructB8ue170006IS1_JRKS1_EEEvPT_DpOT0_, symObjAddr: 0x6B88, symBinAddr: 0x10000A9A8, symSize: 0x28 }
  - { offsetInCU: 0xECA6, offset: 0xECA6, size: 0x8, addend: 0x0, symName: __ZNSt3__114__split_bufferI10CoordinateRNS_9allocatorIS1_EEEC1EmmS4_, symObjAddr: 0x6BB0, symBinAddr: 0x10000A9D0, symSize: 0x44 }
  - { offsetInCU: 0xECFB, offset: 0xECFB, size: 0x8, addend: 0x0, symName: __ZNSt3__114__split_bufferI10CoordinateRNS_9allocatorIS1_EEED1Ev, symObjAddr: 0x6D04, symBinAddr: 0x10000AB24, symSize: 0x2C }
  - { offsetInCU: 0xED26, offset: 0xED26, size: 0x8, addend: 0x0, symName: __ZNSt3__114__split_bufferI10CoordinateRNS_9allocatorIS1_EEEC2EmmS4_, symObjAddr: 0x6D30, symBinAddr: 0x10000AB50, symSize: 0xD4 }
  - { offsetInCU: 0xED98, offset: 0xED98, size: 0x8, addend: 0x0, symName: __ZNSt3__117__compressed_pairIP10CoordinateRNS_9allocatorIS1_EEEC1B8ue170006IDnS5_EEOT_OT0_, symObjAddr: 0x6E04, symBinAddr: 0x10000AC24, symSize: 0x3C }
  - { offsetInCU: 0xEDEF, offset: 0xEDEF, size: 0x8, addend: 0x0, symName: __ZNSt3__114__split_bufferI10CoordinateRNS_9allocatorIS1_EEE7__allocB8ue170006Ev, symObjAddr: 0x6E40, symBinAddr: 0x10000AC60, symSize: 0x28 }
  - { offsetInCU: 0xEE14, offset: 0xEE14, size: 0x8, addend: 0x0, symName: __ZNSt3__114__split_bufferI10CoordinateRNS_9allocatorIS1_EEE9__end_capB8ue170006Ev, symObjAddr: 0x6E68, symBinAddr: 0x10000AC88, symSize: 0x28 }
  - { offsetInCU: 0xEE39, offset: 0xEE39, size: 0x8, addend: 0x0, symName: __ZNSt3__117__compressed_pairIP10CoordinateRNS_9allocatorIS1_EEEC2B8ue170006IDnS5_EEOT_OT0_, symObjAddr: 0x6E90, symBinAddr: 0x10000ACB0, symSize: 0x48 }
  - { offsetInCU: 0xEE90, offset: 0xEE90, size: 0x8, addend: 0x0, symName: __ZNSt3__122__compressed_pair_elemIRNS_9allocatorI10CoordinateEELi1ELb0EEC2B8ue170006IS4_vEEOT_, symObjAddr: 0x6ED8, symBinAddr: 0x10000ACF8, symSize: 0x20 }
  - { offsetInCU: 0xEED1, offset: 0xEED1, size: 0x8, addend: 0x0, symName: __ZNSt3__117__compressed_pairIP10CoordinateRNS_9allocatorIS1_EEE6secondB8ue170006Ev, symObjAddr: 0x6EF8, symBinAddr: 0x10000AD18, symSize: 0x28 }
  - { offsetInCU: 0xEEF6, offset: 0xEEF6, size: 0x8, addend: 0x0, symName: __ZNSt3__122__compressed_pair_elemIRNS_9allocatorI10CoordinateEELi1ELb0EE5__getB8ue170006Ev, symObjAddr: 0x6F20, symBinAddr: 0x10000AD40, symSize: 0x18 }
  - { offsetInCU: 0xEF1B, offset: 0xEF1B, size: 0x8, addend: 0x0, symName: __ZNSt3__117__compressed_pairIP10CoordinateRNS_9allocatorIS1_EEE5firstB8ue170006Ev, symObjAddr: 0x6F38, symBinAddr: 0x10000AD58, symSize: 0x24 }
  - { offsetInCU: 0xEF63, offset: 0xEF63, size: 0x8, addend: 0x0, symName: __ZNKSt3__111__move_loopINS_17_ClassicAlgPolicyEEclB8ue170006INS_16reverse_iteratorIP10CoordinateEES7_S7_EENS_4pairIT_T1_EES9_T0_SA_, symObjAddr: 0x739C, symBinAddr: 0x10000B1BC, symSize: 0xA0 }
  - { offsetInCU: 0xEFCD, offset: 0xEFCD, size: 0x8, addend: 0x0, symName: __ZNSt3__18_IterOpsINS_17_ClassicAlgPolicyEE11__iter_moveB8ue170006IRNS_16reverse_iteratorIP10CoordinateEEEENS_9enable_ifIXsr12is_referenceIDTdeclsr3stdE7declvalIRT_EEEEE5valueEDTclsr3stdE4movedeclsr3stdE7declvalISB_EEEEE4typeEOSA_, symObjAddr: 0x759C, symBinAddr: 0x10000B3BC, symSize: 0x28 }
  - { offsetInCU: 0xEFF9, offset: 0xEFF9, size: 0x8, addend: 0x0, symName: __ZNSt3__18_IterOpsINS_17_ClassicAlgPolicyEE25__validate_iter_referenceB8ue170006IRNS_16reverse_iteratorIP10CoordinateEEEEvv, symObjAddr: 0x75C4, symBinAddr: 0x10000B3E4, symSize: 0x4 }
  - { offsetInCU: 0xF017, offset: 0xF017, size: 0x8, addend: 0x0, symName: __ZNSt3__118__unwrap_iter_implINS_16reverse_iteratorIP10CoordinateEELb0EE8__unwrapB8ue170006ES4_, symObjAddr: 0x75C8, symBinAddr: 0x10000B3E8, symSize: 0x24 }
  - { offsetInCU: 0xF03A, offset: 0xF03A, size: 0x8, addend: 0x0, symName: __ZNSt3__14pairINS_16reverse_iteratorIP10CoordinateEES4_EC1B8ue170006ERKS4_S7_, symObjAddr: 0x75EC, symBinAddr: 0x10000B40C, symSize: 0x3C }
  - { offsetInCU: 0xF07F, offset: 0xF07F, size: 0x8, addend: 0x0, symName: __ZNSt3__14pairINS_16reverse_iteratorIP10CoordinateEES4_EC2B8ue170006ERKS4_S7_, symObjAddr: 0x7628, symBinAddr: 0x10000B448, symSize: 0x34 }
  - { offsetInCU: 0xF0C4, offset: 0xF0C4, size: 0x8, addend: 0x0, symName: __ZNSt3__118__unwrap_iter_implINS_16reverse_iteratorIP10CoordinateEELb0EE8__rewrapB8ue170006ES4_S4_, symObjAddr: 0x765C, symBinAddr: 0x10000B47C, symSize: 0x2C }
  - { offsetInCU: 0xF0F1, offset: 0xF0F1, size: 0x8, addend: 0x0, symName: __ZNSt3__114__split_bufferI10CoordinateRNS_9allocatorIS1_EEED2Ev, symObjAddr: 0x7688, symBinAddr: 0x10000B4A8, symSize: 0x80 }
  - { offsetInCU: 0xF11C, offset: 0xF11C, size: 0x8, addend: 0x0, symName: __ZNSt3__114__split_bufferI10CoordinateRNS_9allocatorIS1_EEE5clearB8ue170006Ev, symObjAddr: 0x7708, symBinAddr: 0x10000B528, symSize: 0x28 }
  - { offsetInCU: 0xF141, offset: 0xF141, size: 0x8, addend: 0x0, symName: __ZNKSt3__114__split_bufferI10CoordinateRNS_9allocatorIS1_EEE8capacityB8ue170006Ev, symObjAddr: 0x7730, symBinAddr: 0x10000B550, symSize: 0x40 }
  - { offsetInCU: 0xF166, offset: 0xF166, size: 0x8, addend: 0x0, symName: __ZNSt3__114__split_bufferI10CoordinateRNS_9allocatorIS1_EEE17__destruct_at_endB8ue170006EPS1_, symObjAddr: 0x7770, symBinAddr: 0x10000B590, symSize: 0x2C }
  - { offsetInCU: 0xF198, offset: 0xF198, size: 0x8, addend: 0x0, symName: __ZNSt3__114__split_bufferI10CoordinateRNS_9allocatorIS1_EEE17__destruct_at_endB8ue170006EPS1_NS_17integral_constantIbLb0EEE, symObjAddr: 0x779C, symBinAddr: 0x10000B5BC, symSize: 0x94 }
  - { offsetInCU: 0xF1D7, offset: 0xF1D7, size: 0x8, addend: 0x0, symName: __ZNKSt3__114__split_bufferI10CoordinateRNS_9allocatorIS1_EEE9__end_capB8ue170006Ev, symObjAddr: 0x7830, symBinAddr: 0x10000B650, symSize: 0x28 }
  - { offsetInCU: 0xF1FC, offset: 0xF1FC, size: 0x8, addend: 0x0, symName: __ZNKSt3__117__compressed_pairIP10CoordinateRNS_9allocatorIS1_EEE5firstB8ue170006Ev, symObjAddr: 0x7858, symBinAddr: 0x10000B678, symSize: 0x24 }
  - { offsetInCU: 0xF221, offset: 0xF221, size: 0x8, addend: 0x0, symName: __ZNSt3__18ios_base9precisionB8ue170006El, symObjAddr: 0x787C, symBinAddr: 0x10000B69C, symSize: 0x2C }
  - { offsetInCU: 0xF265, offset: 0xF265, size: 0x8, addend: 0x0, symName: __ZNKSt3__19basic_iosIcNS_11char_traitsIcEEE5widenB8ue170006Ec, symObjAddr: 0x78A8, symBinAddr: 0x10000B6C8, symSize: 0x8C }
  - { offsetInCU: 0xF2CD, offset: 0xF2CD, size: 0x8, addend: 0x0, symName: __ZNKSt3__15ctypeIcE5widenB8ue170006Ec, symObjAddr: 0x7960, symBinAddr: 0x10000B780, symSize: 0x38 }
...
